
target/a.out:     file format elf64-littleaarch64


Disassembly of section .text:

0000000000000000 <l1-0x84>:
   0:	0b000000 	add	w0, w0, w0
   4:	8b000000 	add	x0, x0, x0
   8:	8b010000 	add	x0, x0, x1
   c:	8b1e0000 	add	x0, x0, x30
  10:	8b000000 	add	x0, x0, x0
  14:	8b000020 	add	x0, x1, x0
  18:	8b000040 	add	x0, x2, x0
  1c:	8b000080 	add	x0, x4, x0
  20:	8b000100 	add	x0, x8, x0
  24:	8b000200 	add	x0, x16, x0
  28:	8b0003c0 	add	x0, x30, x0
  2c:	8b2063e0 	add	x0, sp, x0
  30:	8b000000 	add	x0, x0, x0
  34:	8b000001 	add	x1, x0, x0
  38:	8b000002 	add	x2, x0, x0
  3c:	8b000004 	add	x4, x0, x0
  40:	8b000008 	add	x8, x0, x0
  44:	8b000010 	add	x16, x0, x0
  48:	8b00001e 	add	x30, x0, x0
  4c:	8b20601f 	add	sp, x0, x0
  50:	ab000000 	adds	x0, x0, x0
  54:	eb000000 	subs	x0, x0, x0
  58:	8a000000 	and	x0, x0, x0
  5c:	aa000000 	orr	x0, x0, x0
  60:	ca000000 	eor	x0, x0, x0
  64:	ba000000 	adcs	x0, x0, x0
  68:	fa000000 	sbcs	x0, x0, x0
  6c:	9b007c00 	mul	x0, x0, x0
  70:	9ac00800 	udiv	x0, x0, x0
  74:	9ac00c00 	sdiv	x0, x0, x0
  78:	10000060 	adr	x0, 84 <l1>
  7c:	10000040 	adr	x0, 84 <l1>
  80:	10000020 	adr	x0, 84 <l1>

0000000000000084 <l1>:
  84:	10000000 	adr	x0, 84 <l1>
  88:	10ffffe0 	adr	x0, 84 <l1>
  8c:	10ffffc0 	adr	x0, 84 <l1>
  90:	14000003 	b	9c <l2>
  94:	14000002 	b	9c <l2>
  98:	14000001 	b	9c <l2>

000000000000009c <l2>:
  9c:	14000000 	b	9c <l2>
  a0:	17ffffff 	b	9c <l2>
  a4:	17fffffe 	b	9c <l2>
  a8:	54000100 	b.eq	c8 <l3>  // b.none
  ac:	540000e1 	b.ne	c8 <l3>  // b.any
  b0:	540000c2 	b.cs	c8 <l3>  // b.hs, b.nlast
  b4:	540000a3 	b.cc	c8 <l3>  // b.lo, b.ul, b.last
  b8:	54000084 	b.mi	c8 <l3>  // b.first
  bc:	54000065 	b.pl	c8 <l3>  // b.nfrst
  c0:	54000046 	b.vs	c8 <l3>
  c4:	54000027 	b.vc	c8 <l3>

00000000000000c8 <l3>:
  c8:	54000008 	b.hi	c8 <l3>  // b.pmore
  cc:	54ffffe9 	b.ls	c8 <l3>  // b.plast
  d0:	54ffffca 	b.ge	c8 <l3>  // b.tcont
  d4:	54ffffab 	b.lt	c8 <l3>  // b.tstop
  d8:	54ffff8c 	b.gt	c8 <l3>
  dc:	54ffff6d 	b.le	c8 <l3>
  e0:	54ffff4e 	b.al	c8 <l3>
  e4:	54ffff2f 	b.nv	c8 <l3>
  e8:	5400000e 	b.al	e8 <l3+0x20>
  ec:	54000000 	b.eq	ec <l3+0x24>  // b.none
  f0:	54000001 	b.ne	f0 <l3+0x28>  // b.any
  f4:	5400000c 	b.gt	f4 <l3+0x2c>
  f8:	5400000a 	b.ge	f8 <l3+0x30>  // b.tcont
  fc:	5400000b 	b.lt	fc <l3+0x34>  // b.tstop
 100:	5400000d 	b.le	100 <l3+0x38>
 104:	54000008 	b.hi	104 <l3+0x3c>  // b.pmore
 108:	54000002 	b.cs	108 <l3+0x40>  // b.hs, b.nlast
 10c:	54000003 	b.cc	10c <l3+0x44>  // b.lo, b.ul, b.last
 110:	54000009 	b.ls	110 <l3+0x48>  // b.plast
 114:	540000ae 	b.al	128 <l4>
 118:	54000080 	b.eq	128 <l4>  // b.none
 11c:	54000061 	b.ne	128 <l4>  // b.any
 120:	5400004c 	b.gt	128 <l4>
 124:	5400002a 	b.ge	128 <l4>  // b.tcont

0000000000000128 <l4>:
 128:	5400000b 	b.lt	128 <l4>  // b.tstop
 12c:	54ffffed 	b.le	128 <l4>
 130:	54ffffc8 	b.hi	128 <l4>  // b.pmore
 134:	54ffffa2 	b.cs	128 <l4>  // b.hs, b.nlast
 138:	54ffff83 	b.cc	128 <l4>  // b.lo, b.ul, b.last
 13c:	54ffff69 	b.ls	128 <l4>  // b.plast
 140:	d2800021 	mov	x1, #0x1                   	// #1
 144:	d2800041 	mov	x1, #0x2                   	// #2
 148:	d2800061 	mov	x1, #0x3                   	// #3
 14c:	d2a00021 	mov	x1, #0x10000               	// #65536
 150:	d2c00021 	mov	x1, #0x100000000           	// #4294967296
 154:	d2e00021 	mov	x1, #0x1000000000000       	// #281474976710656
 158:	d65f03c0 	ret
 15c:	d65f03c0 	ret
 160:	eb02003f 	cmp	x1, x2
 164:	f100001f 	cmp	x0, #0x0
 168:	d10003ff 	sub	sp, sp, #0x0
 16c:	d13fffff 	sub	sp, sp, #0xfff
 170:	910003ff 	mov	sp, sp
 174:	913fffff 	add	sp, sp, #0xfff
 178:	39400000 	ldrb	w0, [x0]
 17c:	79400000 	ldrh	w0, [x0]
 180:	b9400000 	ldr	w0, [x0]
 184:	f9400000 	ldr	x0, [x0]
 188:	39800000 	ldrsb	x0, [x0]
 18c:	79800000 	ldrsh	x0, [x0]
 190:	b9800000 	ldrsw	x0, [x0]
 194:	f9400000 	ldr	x0, [x0]
 198:	39000000 	strb	w0, [x0]
 19c:	79000000 	strh	w0, [x0]
 1a0:	b9000000 	str	w0, [x0]
 1a4:	f9000000 	str	x0, [x0]
 1a8:	39000000 	strb	w0, [x0]
 1ac:	79000000 	strh	w0, [x0]
 1b0:	b9000000 	str	w0, [x0]
 1b4:	f9000000 	str	x0, [x0]
 1b8:	aa0003e0 	mov	x0, x0
 1bc:	aa2003e0 	mvn	x0, x0
 1c0:	cb0003e0 	neg	x0, x0
 1c4:	14000001 	b	1c8 <l5>

00000000000001c8 <l5>:
 1c8:	14000000 	b	1c8 <l5>
 1cc:	d61f0000 	br	x0
 1d0:	d61f0020 	br	x1
 1d4:	d63f0000 	blr	x0
 1d8:	d63f0020 	blr	x1
 1dc:	9ac02000 	lsl	x0, x0, x0
 1e0:	9ac12000 	lsl	x0, x0, x1
 1e4:	9ac02020 	lsl	x0, x1, x0
 1e8:	9ac02001 	lsl	x1, x0, x0
 1ec:	9ac02400 	lsr	x0, x0, x0
 1f0:	9ac12400 	lsr	x0, x0, x1
 1f4:	9ac02420 	lsr	x0, x1, x0
 1f8:	9ac02401 	lsr	x1, x0, x0
 1fc:	9ac02800 	asr	x0, x0, x0
 200:	9ac12800 	asr	x0, x0, x1
 204:	9ac02820 	asr	x0, x1, x0
 208:	9ac02801 	asr	x1, x0, x0
 20c:	9a800000 	csel	x0, x0, x0, eq	// eq = none
 210:	9a801000 	csel	x0, x0, x0, ne	// ne = any
 214:	9a80c000 	csel	x0, x0, x0, gt
 218:	9a80a000 	csel	x0, x0, x0, ge	// ge = tcont
 21c:	9a80b000 	csel	x0, x0, x0, lt	// lt = tstop
 220:	9a80d000 	csel	x0, x0, x0, le
 224:	9a808000 	csel	x0, x0, x0, hi	// hi = pmore
 228:	9a802000 	csel	x0, x0, x0, cs	// cs = hs, nlast
 22c:	9a803000 	csel	x0, x0, x0, cc	// cc = lo, ul, last
 230:	9a809000 	csel	x0, x0, x0, ls	// ls = plast
 234:	9a810000 	csel	x0, x0, x1, eq	// eq = none
 238:	9a800020 	csel	x0, x1, x0, eq	// eq = none
 23c:	9a800001 	csel	x1, x0, x0, eq	// eq = none
 240:	1e204000 	fmov	s0, s0
 244:	1e204020 	fmov	s0, s1
 248:	1e204001 	fmov	s1, s0
 24c:	1e604000 	fmov	d0, d0
 250:	1e604020 	fmov	d0, d1
 254:	1e604001 	fmov	d1, d0
 258:	0ea01c00 	mov	v0.8b, v0.8b
 25c:	4ea01c00 	mov	v0.16b, v0.16b
 260:	2e205800 	mvn	v0.8b, v0.8b
 264:	6e205800 	mvn	v0.16b, v0.16b
 268:	0ea0d400 	fsub	v0.2s, v0.2s, v0.2s
 26c:	0ea1d400 	fsub	v0.2s, v0.2s, v1.2s
